target datalayout = "e-m:e-p270:32:32-p271:32:32-p272:64:64-i64:64-i128:128-f80:128-n8:16:32:64-S128"
target triple = "x86_64-pc-linux-gnu"

%struct.ForEachState = type { ptr, i32 }
%struct.List = type { i32, i32, i32, ptr, [0 x %union.ListCell] }
%union.ListCell = type { ptr }
%struct.SortBy = type { i32, ptr, i32, i32, ptr, i32 }

; Function Attrs: nounwind uwtable
define dso_local ptr @transformSortClause(ptr noundef %0, ptr noundef %1, ptr noundef %2, i32 noundef %3, i1 noundef zeroext %4) #0 {
  %6 = alloca ptr, align 8
  %7 = alloca ptr, align 8
  %8 = alloca ptr, align 8
  %9 = alloca i32, align 4
  %10 = alloca i8, align 1
  %11 = alloca ptr, align 8
  %12 = alloca ptr, align 8
  %13 = alloca %struct.ForEachState, align 8
  %14 = alloca ptr, align 8
  %15 = alloca ptr, align 8
  store ptr %0, ptr %6, align 8
  store ptr %1, ptr %7, align 8
  store ptr %2, ptr %8, align 8
  store i32 %3, ptr %9, align 4
  %16 = zext i1 %4 to i8
  store i8 %16, ptr %10, align 1
  call void @llvm.lifetime.start.p0(i64 8, ptr %11) #8
  store ptr null, ptr %11, align 8
  call void @llvm.lifetime.start.p0(i64 8, ptr %12) #8
  call void @llvm.lifetime.start.p0(i64 16, ptr %13) #8
  %17 = getelementptr inbounds nuw %struct.ForEachState, ptr %13, i32 0, i32 0
  %18 = load ptr, ptr %7, align 8
  store ptr %18, ptr %17, align 8
  %19 = getelementptr inbounds nuw %struct.ForEachState, ptr %13, i32 0, i32 1
  store i32 0, ptr %19, align 8
  %20 = getelementptr i8, ptr %13, i64 12
  call void @llvm.memset.p0.i64(ptr align 4 %20, i8 0, i64 4, i1 false)
  br label %21

21:                                               ; preds = %76, %5
  %22 = getelementptr inbounds nuw %struct.ForEachState, ptr %13, i32 0, i32 0
  %23 = load ptr, ptr %22, align 8
  %24 = icmp ne ptr %23, null
  br i1 %24, label %25, label %42

25:                                               ; preds = %21
  %26 = getelementptr inbounds nuw %struct.ForEachState, ptr %13, i32 0, i32 1
  %27 = load i32, ptr %26, align 8
  %28 = getelementptr inbounds nuw %struct.ForEachState, ptr %13, i32 0, i32 0
  %29 = load ptr, ptr %28, align 8
  %30 = getelementptr inbounds nuw %struct.List, ptr %29, i32 0, i32 1
  %31 = load i32, ptr %30, align 4
  %32 = icmp slt i32 %27, %31
  br i1 %32, label %33, label %42

33:                                               ; preds = %25
  %34 = getelementptr inbounds nuw %struct.ForEachState, ptr %13, i32 0, i32 0
  %35 = load ptr, ptr %34, align 8
  %36 = getelementptr inbounds nuw %struct.List, ptr %35, i32 0, i32 3
  %37 = load ptr, ptr %36, align 8
  %38 = getelementptr inbounds nuw %struct.ForEachState, ptr %13, i32 0, i32 1
  %39 = load i32, ptr %38, align 8
  %40 = sext i32 %39 to i64
  %41 = getelementptr inbounds %union.ListCell, ptr %37, i64 %40
  store ptr %41, ptr %12, align 8
  br label %43

42:                                               ; preds = %25, %21
  store ptr null, ptr %12, align 8
  br label %43

43:                                               ; preds = %42, %33
  %44 = phi i32 [ 1, %33 ], [ 0, %42 ]
  %45 = icmp ne i32 %44, 0
  br i1 %45, label %47, label %46

46:                                               ; preds = %43
  call void @llvm.lifetime.end.p0(i64 16, ptr %13) #8
  br label %80

47:                                               ; preds = %43
  call void @llvm.lifetime.start.p0(i64 8, ptr %14) #8
  %48 = load ptr, ptr %12, align 8
  %49 = load ptr, ptr %48, align 8
  store ptr %49, ptr %14, align 8
  call void @llvm.lifetime.start.p0(i64 8, ptr %15) #8
  %50 = load i8, ptr %10, align 1, !range !6, !noundef !7
  %51 = trunc i8 %50 to i1
  br i1 %51, label %52, label %60

52:                                               ; preds = %47
  %53 = load ptr, ptr %6, align 8
  %54 = load ptr, ptr %14, align 8
  %55 = getelementptr inbounds nuw %struct.SortBy, ptr %54, i32 0, i32 1
  %56 = load ptr, ptr %55, align 8
  %57 = load ptr, ptr %8, align 8
  %58 = load i32, ptr %9, align 4
  %59 = call ptr @findTargetlistEntrySQL99(ptr noundef %53, ptr noundef %56, ptr noundef %57, i32 noundef %58)
  store ptr %59, ptr %15, align 8
  br label %68

60:                                               ; preds = %47
  %61 = load ptr, ptr %6, align 8
  %62 = load ptr, ptr %14, align 8
  %63 = getelementptr inbounds nuw %struct.SortBy, ptr %62, i32 0, i32 1
  %64 = load ptr, ptr %63, align 8
  %65 = load ptr, ptr %8, align 8
  %66 = load i32, ptr %9, align 4
  %67 = call ptr @findTargetlistEntrySQL92(ptr noundef %61, ptr noundef %64, ptr noundef %65, i32 noundef %66)
  store ptr %67, ptr %15, align 8
  br label %68

68:                                               ; preds = %60, %52
  %69 = load ptr, ptr %6, align 8
  %70 = load ptr, ptr %15, align 8
  %71 = load ptr, ptr %11, align 8
  %72 = load ptr, ptr %8, align 8
  %73 = load ptr, ptr %72, align 8
  %74 = load ptr, ptr %14, align 8
  %75 = call ptr @addTargetToSortList(ptr noundef %69, ptr noundef %70, ptr noundef %71, ptr noundef %73, ptr noundef %74)
  store ptr %75, ptr %11, align 8
  call void @llvm.lifetime.end.p0(i64 8, ptr %15) #8
  call void @llvm.lifetime.end.p0(i64 8, ptr %14) #8
  br label %76

76:                                               ; preds = %68
  %77 = getelementptr inbounds nuw %struct.ForEachState, ptr %13, i32 0, i32 1
  %78 = load i32, ptr %77, align 8
  %79 = add i32 %78, 1
  store i32 %79, ptr %77, align 8
  br label %21, !llvm.loop !23

80:                                               ; preds = %46
  %81 = load ptr, ptr %11, align 8
  call void @llvm.lifetime.end.p0(i64 8, ptr %12) #8
  call void @llvm.lifetime.end.p0(i64 8, ptr %11) #8
  ret ptr %81
}