; Function Attrs: nounwind uwtable
define dso_local ptr @transformSortClause(ptr noundef %0, ptr noundef readonly captures(address_is_null) %1, ptr noundef captures(none) %2, i32 noundef %3, i1 noundef zeroext %4) local_unnamed_addr #0 {
  %6 = getelementptr inbounds nuw i8, ptr %1, i64 4
  %.not = icmp eq ptr %1, null
  br i1 %.not, label %._crit_edge, label %.lr.ph

.lr.ph:                                           ; preds = %5
  %7 = getelementptr inbounds nuw i8, ptr %1, i64 16
  %8 = load i32, ptr %6, align 4
  %9 = icmp sgt i32 %8, 0
  br i1 %4, label %.lr.ph.split.us.split, label %.lr.ph.split.split

.lr.ph.split.us.split:                            ; preds = %.lr.ph
  br i1 %9, label %.lr.ph45, label %._crit_edge

.lr.ph45:                                         ; preds = %.lr.ph.split.us.split, %.lr.ph45
  %indvars.iv50 = phi i64 [ %indvars.iv.next51, %.lr.ph45 ], [ 0, %.lr.ph.split.us.split ]
  %.02027.us43 = phi ptr [ %17, %.lr.ph45 ], [ null, %.lr.ph.split.us.split ]
  %10 = load ptr, ptr %7, align 8
  %11 = getelementptr inbounds nuw %union.ListCell, ptr %10, i64 %indvars.iv50
  %12 = load ptr, ptr %11, align 8
  %13 = getelementptr inbounds nuw i8, ptr %12, i64 8
  %14 = load ptr, ptr %13, align 8
  %15 = tail call fastcc ptr @findTargetlistEntrySQL99(ptr noundef %0, ptr noundef %14, ptr noundef %2, i32 noundef %3)
  %16 = load ptr, ptr %2, align 8
  %17 = tail call ptr @addTargetToSortList(ptr noundef %0, ptr noundef %15, ptr noundef %.02027.us43, ptr noundef %16, ptr noundef nonnull %12)
  %indvars.iv.next51 = add nuw nsw i64 %indvars.iv50, 1
  %18 = load i32, ptr %6, align 4
  %19 = sext i32 %18 to i64
  %20 = icmp slt i64 %indvars.iv.next51, %19
  br i1 %20, label %.lr.ph45, label %._crit_edge

.lr.ph.split.split:                               ; preds = %.lr.ph
  br i1 %9, label %.lr.ph39, label %._crit_edge

._crit_edge:                                      ; preds = %.lr.ph39, %.lr.ph45, %.lr.ph.split.us.split, %.lr.ph.split.split, %5
  %.020.lcssa = phi ptr [ null, %5 ], [ null, %.lr.ph.split.us.split ], [ null, %.lr.ph.split.split ], [ %17, %.lr.ph45 ], [ %28, %.lr.ph39 ]
  ret ptr %.020.lcssa

.lr.ph39:                                         ; preds = %.lr.ph.split.split, %.lr.ph39
  %indvars.iv = phi i64 [ %indvars.iv.next, %.lr.ph39 ], [ 0, %.lr.ph.split.split ]
  %.0202737 = phi ptr [ %28, %.lr.ph39 ], [ null, %.lr.ph.split.split ]
  %21 = load ptr, ptr %7, align 8
  %22 = getelementptr inbounds nuw %union.ListCell, ptr %21, i64 %indvars.iv
  %23 = load ptr, ptr %22, align 8
  %24 = getelementptr inbounds nuw i8, ptr %23, i64 8
  %25 = load ptr, ptr %24, align 8
  %26 = tail call fastcc ptr @findTargetlistEntrySQL92(ptr noundef %0, ptr noundef %25, ptr noundef %2, i32 noundef %3)
  %27 = load ptr, ptr %2, align 8
  %28 = tail call ptr @addTargetToSortList(ptr noundef %0, ptr noundef %26, ptr noundef %.0202737, ptr noundef %27, ptr noundef nonnull %23)
  %indvars.iv.next = add nuw nsw i64 %indvars.iv, 1
  %29 = load i32, ptr %6, align 4
  %30 = sext i32 %29 to i64
  %31 = icmp slt i64 %indvars.iv.next, %30
  br i1 %31, label %.lr.ph39, label %._crit_edge
}